target datalayout = "e-m:e-p270:32:32-p271:32:32-p272:64:64-i64:64-i128:128-f80:128-n8:16:32:64-S128"
target triple = "x86_64-unknown-linux-gnu"

%"class.icu_75::MessageFormat" = type { %"class.icu_75::Format.base", [6 x i8], %"class.icu_75::Locale", %"class.icu_75::MessagePattern", ptr, i32, ptr, i32, i32, i8, ptr, ptr, ptr, ptr, %"class.icu_75::MessageFormat::PluralSelectorProvider", %"class.icu_75::MessageFormat::PluralSelectorProvider" }
%"class.icu_75::Format.base" = type <{ %"class.icu_75::UObject", [157 x i8], [157 x i8] }>
%"class.icu_75::UObject" = type { ptr }
%"class.icu_75::Locale" = type <{ %"class.icu_75::UObject", [12 x i8], [6 x i8], [4 x i8], [2 x i8], i32, [4 x i8], ptr, [157 x i8], [3 x i8], ptr, i8, [7 x i8] }>
%"class.icu_75::MessagePattern" = type <{ %"class.icu_75::UObject", i32, [4 x i8], %"class.icu_75::UnicodeString", ptr, ptr, i32, [4 x i8], ptr, ptr, i32, i8, i8, i8, i8 }>
%"class.icu_75::UnicodeString" = type { %"class.icu_75::Replaceable", %"union.icu_75::UnicodeString::StackBufferOrFields" }
%"class.icu_75::Replaceable" = type { %"class.icu_75::UObject" }
%"union.icu_75::UnicodeString::StackBufferOrFields" = type { %struct.anon.0, [32 x i8] }
%struct.anon.0 = type { i16, i32, i32, ptr }
%"class.icu_75::MessageFormat::PluralSelectorProvider" = type <{ %"class.icu_75::PluralFormat::PluralSelector", ptr, ptr, i32, [4 x i8] }>
%"class.icu_75::PluralFormat::PluralSelector" = type { ptr }

@_ZN6icu_7513MessageFormat22PluralSelectorProviderC1ERKS0_11UPluralType = unnamed_addr alias void (ptr, ptr, i32), ptr @_ZN6icu_7513MessageFormat22PluralSelectorProviderC2ERKS0_11UPluralType
@_ZN6icu_7513MessageFormat22PluralSelectorProviderD1Ev = unnamed_addr alias void (ptr), ptr @_ZN6icu_7513MessageFormat22PluralSelectorProviderD2Ev

; Function Attrs: mustprogress uwtable
define void @_ZN6icu_7513MessageFormat12resetPatternEv(ptr noundef nonnull align 8 dereferenceable(816) %this) #1 align 2 {
entry:
  %this.addr = alloca ptr, align 8
  store ptr %this, ptr %this.addr, align 8
  %this1 = load ptr, ptr %this.addr, align 8
  %msgPattern = getelementptr inbounds %"class.icu_75::MessageFormat", ptr %this1, i32 0, i32 3
  call void @_ZN6icu_7514MessagePattern5clearEv(ptr noundef nonnull align 8 dereferenceable(127) %msgPattern)
  %cachedFormatters = getelementptr inbounds %"class.icu_75::MessageFormat", ptr %this1, i32 0, i32 12
  %0 = load ptr, ptr %cachedFormatters, align 8
  call void @uhash_close_75(ptr noundef %0)
  %cachedFormatters2 = getelementptr inbounds %"class.icu_75::MessageFormat", ptr %this1, i32 0, i32 12
  store ptr null, ptr %cachedFormatters2, align 8
  %customFormatArgStarts = getelementptr inbounds %"class.icu_75::MessageFormat", ptr %this1, i32 0, i32 13
  %1 = load ptr, ptr %customFormatArgStarts, align 8
  call void @uhash_close_75(ptr noundef %1)
  %customFormatArgStarts3 = getelementptr inbounds %"class.icu_75::MessageFormat", ptr %this1, i32 0, i32 13
  store ptr null, ptr %customFormatArgStarts3, align 8
  %argTypeCount = getelementptr inbounds %"class.icu_75::MessageFormat", ptr %this1, i32 0, i32 7
  store i32 0, ptr %argTypeCount, align 8
  %hasArgTypeConflicts = getelementptr inbounds %"class.icu_75::MessageFormat", ptr %this1, i32 0, i32 9
  store i8 0, ptr %hasArgTypeConflicts, align 8
  ret void
}

; Function Attrs: mustprogress nounwind uwtable
define internal noundef signext i8 @_ZL9U_FAILURE10UErrorCode(i32 noundef %code) #0 {
entry:
  %code.addr = alloca i32, align 4
  store i32 %code, ptr %code.addr, align 4
  %0 = load i32, ptr %code.addr, align 4
  %cmp = icmp sgt i32 %0, 0
  %conv = zext i1 %cmp to i8
  ret i8 %conv
}

; Function Attrs: mustprogress uwtable
define void @_ZN6icu_7513MessageFormatC2ERKS0_(ptr noundef nonnull align 8 dereferenceable(816) %this, ptr noundef nonnull align 8 dereferenceable(816) %that) unnamed_addr #1 align 2 personality ptr @__gxx_personality_v0 {
entry:
  %this.addr = alloca ptr, align 8
  %that.addr = alloca ptr, align 8
  %exn.slot = alloca ptr, align 8
  %ehselector.slot = alloca i32, align 4
  %ec = alloca i32, align 4
  store ptr %this, ptr %this.addr, align 8
  store ptr %that, ptr %that.addr, align 8
  %this1 = load ptr, ptr %this.addr, align 8
  %0 = load ptr, ptr %that.addr, align 8
  call void @_ZN6icu_756FormatC2ERKS0_(ptr noundef nonnull align 8 dereferenceable(322) %this1, ptr noundef nonnull align 8 dereferenceable(322) %0)
  store ptr getelementptr inbounds ({ [27 x ptr] }, ptr @_ZTVN6icu_7513MessageFormatE, i32 0, i32 0, i32 2), ptr %this1, align 8
  %fLocale = getelementptr inbounds %"class.icu_75::MessageFormat", ptr %this1, i32 0, i32 2
  %1 = load ptr, ptr %that.addr, align 8
  %fLocale2 = getelementptr inbounds %"class.icu_75::MessageFormat", ptr %1, i32 0, i32 2
  invoke void @_ZN6icu_756LocaleC1ERKS0_(ptr noundef nonnull align 8 dereferenceable(217) %fLocale, ptr noundef nonnull align 8 dereferenceable(217) %fLocale2)
          to label %invoke.cont unwind label %lpad

invoke.cont:                                      ; preds = %entry
  %msgPattern = getelementptr inbounds %"class.icu_75::MessageFormat", ptr %this1, i32 0, i32 3
  %2 = load ptr, ptr %that.addr, align 8
  %msgPattern3 = getelementptr inbounds %"class.icu_75::MessageFormat", ptr %2, i32 0, i32 3
  invoke void @_ZN6icu_7514MessagePatternC1ERKS0_(ptr noundef nonnull align 8 dereferenceable(127) %msgPattern, ptr noundef nonnull align 8 dereferenceable(127) %msgPattern3)
          to label %invoke.cont5 unwind label %lpad4

invoke.cont5:                                     ; preds = %invoke.cont
  %formatAliases = getelementptr inbounds %"class.icu_75::MessageFormat", ptr %this1, i32 0, i32 4
  store ptr null, ptr %formatAliases, align 8
  %formatAliasesCapacity = getelementptr inbounds %"class.icu_75::MessageFormat", ptr %this1, i32 0, i32 5
  store i32 0, ptr %formatAliasesCapacity, align 8
  %argTypes = getelementptr inbounds %"class.icu_75::MessageFormat", ptr %this1, i32 0, i32 6
  store ptr null, ptr %argTypes, align 8
  %argTypeCount = getelementptr inbounds %"class.icu_75::MessageFormat", ptr %this1, i32 0, i32 7
  store i32 0, ptr %argTypeCount, align 8
  %argTypeCapacity = getelementptr inbounds %"class.icu_75::MessageFormat", ptr %this1, i32 0, i32 8
  store i32 0, ptr %argTypeCapacity, align 4
  %hasArgTypeConflicts = getelementptr inbounds %"class.icu_75::MessageFormat", ptr %this1, i32 0, i32 9
  %3 = load ptr, ptr %that.addr, align 8
  %hasArgTypeConflicts6 = getelementptr inbounds %"class.icu_75::MessageFormat", ptr %3, i32 0, i32 9
  %4 = load i8, ptr %hasArgTypeConflicts6, align 8
  store i8 %4, ptr %hasArgTypeConflicts, align 8
  %defaultNumberFormat = getelementptr inbounds %"class.icu_75::MessageFormat", ptr %this1, i32 0, i32 10
  store ptr null, ptr %defaultNumberFormat, align 8
  %defaultDateFormat = getelementptr inbounds %"class.icu_75::MessageFormat", ptr %this1, i32 0, i32 11
  store ptr null, ptr %defaultDateFormat, align 8
  %cachedFormatters = getelementptr inbounds %"class.icu_75::MessageFormat", ptr %this1, i32 0, i32 12
  store ptr null, ptr %cachedFormatters, align 8
  %customFormatArgStarts = getelementptr inbounds %"class.icu_75::MessageFormat", ptr %this1, i32 0, i32 13
  store ptr null, ptr %customFormatArgStarts, align 8
  %pluralProvider = getelementptr inbounds %"class.icu_75::MessageFormat", ptr %this1, i32 0, i32 14
  invoke void @_ZN6icu_7513MessageFormat22PluralSelectorProviderC1ERKS0_11UPluralType(ptr noundef nonnull align 8 dereferenceable(28) %pluralProvider, ptr noundef nonnull align 8 dereferenceable(816) %this1, i32 noundef 0)
          to label %invoke.cont8 unwind label %lpad7

invoke.cont8:                                     ; preds = %invoke.cont5
  %ordinalProvider = getelementptr inbounds %"class.icu_75::MessageFormat", ptr %this1, i32 0, i32 15
  invoke void @_ZN6icu_7513MessageFormat22PluralSelectorProviderC1ERKS0_11UPluralType(ptr noundef nonnull align 8 dereferenceable(28) %ordinalProvider, ptr noundef nonnull align 8 dereferenceable(816) %this1, i32 noundef 1)
          to label %invoke.cont10 unwind label %lpad9

invoke.cont10:                                    ; preds = %invoke.cont8
  store i32 0, ptr %ec, align 4
  %5 = load ptr, ptr %that.addr, align 8
  invoke void @_ZN6icu_7513MessageFormat11copyObjectsERKS0_R10UErrorCode(ptr noundef nonnull align 8 dereferenceable(816) %this1, ptr noundef nonnull align 8 dereferenceable(816) %5, ptr noundef nonnull align 4 dereferenceable(4) %ec)
          to label %invoke.cont12 unwind label %lpad11

invoke.cont12:                                    ; preds = %invoke.cont10
  %6 = load i32, ptr %ec, align 4
  %call = invoke noundef signext i8 @_ZL9U_FAILURE10UErrorCode(i32 noundef %6)
          to label %invoke.cont13 unwind label %lpad11

invoke.cont13:                                    ; preds = %invoke.cont12
  %tobool = icmp ne i8 %call, 0
  br i1 %tobool, label %if.then, label %if.end

if.then:                                          ; preds = %invoke.cont13
  invoke void @_ZN6icu_7513MessageFormat12resetPatternEv(ptr noundef nonnull align 8 dereferenceable(816) %this1)
          to label %invoke.cont14 unwind label %lpad11

invoke.cont14:                                    ; preds = %if.then
  br label %if.end

lpad:                                             ; preds = %entry
  %7 = landingpad { ptr, i32 }
          cleanup
  %8 = extractvalue { ptr, i32 } %7, 0
  store ptr %8, ptr %exn.slot, align 8
  %9 = extractvalue { ptr, i32 } %7, 1
  store i32 %9, ptr %ehselector.slot, align 4
  br label %ehcleanup17

lpad4:                                            ; preds = %invoke.cont
  %10 = landingpad { ptr, i32 }
          cleanup
  %11 = extractvalue { ptr, i32 } %10, 0
  store ptr %11, ptr %exn.slot, align 8
  %12 = extractvalue { ptr, i32 } %10, 1
  store i32 %12, ptr %ehselector.slot, align 4
  br label %ehcleanup16

lpad7:                                            ; preds = %invoke.cont5
  %13 = landingpad { ptr, i32 }
          cleanup
  %14 = extractvalue { ptr, i32 } %13, 0
  store ptr %14, ptr %exn.slot, align 8
  %15 = extractvalue { ptr, i32 } %13, 1
  store i32 %15, ptr %ehselector.slot, align 4
  br label %ehcleanup15

lpad9:                                            ; preds = %invoke.cont8
  %16 = landingpad { ptr, i32 }
          cleanup
  %17 = extractvalue { ptr, i32 } %16, 0
  store ptr %17, ptr %exn.slot, align 8
  %18 = extractvalue { ptr, i32 } %16, 1
  store i32 %18, ptr %ehselector.slot, align 4
  br label %ehcleanup

lpad11:                                           ; preds = %if.then, %invoke.cont12, %invoke.cont10
  %19 = landingpad { ptr, i32 }
          cleanup
  %20 = extractvalue { ptr, i32 } %19, 0
  store ptr %20, ptr %exn.slot, align 8
  %21 = extractvalue { ptr, i32 } %19, 1
  store i32 %21, ptr %ehselector.slot, align 4
  call void @_ZN6icu_7513MessageFormat22PluralSelectorProviderD1Ev(ptr noundef nonnull align 8 dereferenceable(28) %ordinalProvider) #11
  br label %ehcleanup

if.end:                                           ; preds = %invoke.cont14, %invoke.cont13
  ret void

ehcleanup:                                        ; preds = %lpad11, %lpad9
  call void @_ZN6icu_7513MessageFormat22PluralSelectorProviderD1Ev(ptr noundef nonnull align 8 dereferenceable(28) %pluralProvider) #11
  br label %ehcleanup15

ehcleanup15:                                      ; preds = %ehcleanup, %lpad7
  call void @_ZN6icu_7514MessagePatternD1Ev(ptr noundef nonnull align 8 dereferenceable(127) %msgPattern) #11
  br label %ehcleanup16

ehcleanup16:                                      ; preds = %ehcleanup15, %lpad4
  call void @_ZN6icu_756LocaleD1Ev(ptr noundef nonnull align 8 dereferenceable(217) %fLocale) #11
  br label %ehcleanup17

ehcleanup17:                                      ; preds = %ehcleanup16, %lpad
  call void @_ZN6icu_756FormatD2Ev(ptr noundef nonnull align 8 dereferenceable(322) %this1) #11
  br label %eh.resume

eh.resume:                                        ; preds = %ehcleanup17
  %exn = load ptr, ptr %exn.slot, align 8
  %sel = load i32, ptr %ehselector.slot, align 4
  %lpad.val = insertvalue { ptr, i32 } poison, ptr %exn, 0
  %lpad.val18 = insertvalue { ptr, i32 } %lpad.val, i32 %sel, 1
  resume { ptr, i32 } %lpad.val18
}