; Function Attrs: mustprogress uwtable
define void @_ZN6icu_7513MessageFormatC2ERKS0_(ptr noundef nonnull align 8 dereferenceable(816) %this, ptr noundef nonnull align 8 dereferenceable(816) %that) unnamed_addr #1 align 2 personality ptr @__gxx_personality_v0 {
entry:
  %ec = alloca i32, align 4
  tail call void @_ZN6icu_756FormatC2ERKS0_(ptr noundef nonnull align 8 dereferenceable(322) %this, ptr noundef nonnull align 8 dereferenceable(322) %that)
  store ptr getelementptr inbounds ({ [27 x ptr] }, ptr @_ZTVN6icu_7513MessageFormatE, i64 0, i32 0, i64 2), ptr %this, align 8
  %fLocale = getelementptr inbounds i8, ptr %this, i64 328
  %fLocale2 = getelementptr inbounds i8, ptr %that, i64 328
  invoke void @_ZN6icu_756LocaleC1ERKS0_(ptr noundef nonnull align 8 dereferenceable(217) %fLocale, ptr noundef nonnull align 8 dereferenceable(217) %fLocale2)
          to label %invoke.cont unwind label %lpad

invoke.cont:                                      ; preds = %entry
  %msgPattern = getelementptr inbounds i8, ptr %this, i64 552
  %msgPattern3 = getelementptr inbounds i8, ptr %that, i64 552
  invoke void @_ZN6icu_7514MessagePatternC1ERKS0_(ptr noundef nonnull align 8 dereferenceable(127) %msgPattern, ptr noundef nonnull align 8 dereferenceable(127) %msgPattern3)
          to label %invoke.cont5 unwind label %lpad4

invoke.cont5:                                     ; preds = %invoke.cont
  %formatAliases = getelementptr inbounds i8, ptr %this, i64 680
  store ptr null, ptr %formatAliases, align 8
  %formatAliasesCapacity = getelementptr inbounds i8, ptr %this, i64 688
  store i32 0, ptr %formatAliasesCapacity, align 8
  %argTypes = getelementptr inbounds i8, ptr %this, i64 696
  %argTypeCount = getelementptr inbounds i8, ptr %this, i64 704
  %hasArgTypeConflicts = getelementptr inbounds i8, ptr %this, i64 712
  %hasArgTypeConflicts6 = getelementptr inbounds i8, ptr %that, i64 712
  tail call void @llvm.memset.p0.i64(ptr noundef nonnull align 8 dereferenceable(16) %argTypes, i8 0, i64 16, i1 false)
  %0 = load i8, ptr %hasArgTypeConflicts6, align 8
  store i8 %0, ptr %hasArgTypeConflicts, align 8
  %defaultNumberFormat = getelementptr inbounds i8, ptr %this, i64 720
  %cachedFormatters = getelementptr inbounds i8, ptr %this, i64 736
  %customFormatArgStarts = getelementptr inbounds i8, ptr %this, i64 744
  %pluralProvider = getelementptr inbounds i8, ptr %this, i64 752
  tail call void @llvm.memset.p0.i64(ptr noundef nonnull align 8 dereferenceable(32) %defaultNumberFormat, i8 0, i64 32, i1 false)
  invoke void @_ZN6icu_7513MessageFormat22PluralSelectorProviderC1ERKS0_11UPluralType(ptr noundef nonnull align 8 dereferenceable(28) %pluralProvider, ptr noundef nonnull align 8 dereferenceable(816) %this, i32 noundef 0)
          to label %invoke.cont8 unwind label %lpad7

invoke.cont8:                                     ; preds = %invoke.cont5
  %ordinalProvider = getelementptr inbounds i8, ptr %this, i64 784
  invoke void @_ZN6icu_7513MessageFormat22PluralSelectorProviderC1ERKS0_11UPluralType(ptr noundef nonnull align 8 dereferenceable(28) %ordinalProvider, ptr noundef nonnull align 8 dereferenceable(816) %this, i32 noundef 1)
          to label %invoke.cont10 unwind label %lpad9

invoke.cont10:                                    ; preds = %invoke.cont8
  store i32 0, ptr %ec, align 4
  invoke void @_ZN6icu_7513MessageFormat11copyObjectsERKS0_R10UErrorCode(ptr noundef nonnull align 8 dereferenceable(816) %this, ptr noundef nonnull align 8 dereferenceable(816) %that, ptr noundef nonnull align 4 dereferenceable(4) %ec)
          to label %invoke.cont12 unwind label %lpad11

invoke.cont12:                                    ; preds = %invoke.cont10
  %1 = load i32, ptr %ec, align 4
  %cmp.i = icmp slt i32 %1, 1
  br i1 %cmp.i, label %if.end, label %if.then

if.then:                                          ; preds = %invoke.cont12
  invoke void @_ZN6icu_7514MessagePattern5clearEv(ptr noundef nonnull align 8 dereferenceable(127) %msgPattern)
          to label %.noexc unwind label %lpad11

.noexc:                                           ; preds = %if.then
  %2 = load ptr, ptr %cachedFormatters, align 8
  invoke void @uhash_close_75(ptr noundef %2)
          to label %.noexc9 unwind label %lpad11

.noexc9:                                          ; preds = %.noexc
  store ptr null, ptr %cachedFormatters, align 8
  %3 = load ptr, ptr %customFormatArgStarts, align 8
  invoke void @uhash_close_75(ptr noundef %3)
          to label %_ZN6icu_7513MessageFormat12resetPatternEv.exit unwind label %lpad11

_ZN6icu_7513MessageFormat12resetPatternEv.exit:   ; preds = %.noexc9
  store ptr null, ptr %customFormatArgStarts, align 8
  store i32 0, ptr %argTypeCount, align 8
  store i8 0, ptr %hasArgTypeConflicts, align 8
  br label %if.end

lpad:                                             ; preds = %entry
  %4 = landingpad { ptr, i32 }
          cleanup
  br label %ehcleanup17

lpad4:                                            ; preds = %invoke.cont
  %5 = landingpad { ptr, i32 }
          cleanup
  br label %ehcleanup16

lpad7:                                            ; preds = %invoke.cont5
  %6 = landingpad { ptr, i32 }
          cleanup
  br label %ehcleanup15

lpad9:                                            ; preds = %invoke.cont8
  %7 = landingpad { ptr, i32 }
          cleanup
  br label %ehcleanup

lpad11:                                           ; preds = %.noexc9, %.noexc, %if.then, %invoke.cont10
  %8 = landingpad { ptr, i32 }
          cleanup
  call void @_ZN6icu_7513MessageFormat22PluralSelectorProviderD1Ev(ptr noundef nonnull align 8 dereferenceable(28) %ordinalProvider) #19
  br label %ehcleanup

if.end:                                           ; preds = %_ZN6icu_7513MessageFormat12resetPatternEv.exit, %invoke.cont12
  ret void

ehcleanup:                                        ; preds = %lpad11, %lpad9
  %.pn = phi { ptr, i32 } [ %8, %lpad11 ], [ %7, %lpad9 ]
  call void @_ZN6icu_7513MessageFormat22PluralSelectorProviderD1Ev(ptr noundef nonnull align 8 dereferenceable(28) %pluralProvider) #19
  br label %ehcleanup15

ehcleanup15:                                      ; preds = %ehcleanup, %lpad7
  %.pn.pn = phi { ptr, i32 } [ %.pn, %ehcleanup ], [ %6, %lpad7 ]
  call void @_ZN6icu_7514MessagePatternD1Ev(ptr noundef nonnull align 8 dereferenceable(127) %msgPattern) #19
  br label %ehcleanup16

ehcleanup16:                                      ; preds = %ehcleanup15, %lpad4
  %.pn.pn.pn = phi { ptr, i32 } [ %.pn.pn, %ehcleanup15 ], [ %5, %lpad4 ]
  call void @_ZN6icu_756LocaleD1Ev(ptr noundef nonnull align 8 dereferenceable(217) %fLocale) #19
  br label %ehcleanup17

ehcleanup17:                                      ; preds = %ehcleanup16, %lpad
  %.pn.pn.pn.pn = phi { ptr, i32 } [ %.pn.pn.pn, %ehcleanup16 ], [ %4, %lpad ]
  call void @_ZN6icu_756FormatD2Ev(ptr noundef nonnull align 8 dereferenceable(322) %this) #19
  resume { ptr, i32 } %.pn.pn.pn.pn
}